; Function Attrs: mustprogress nofree norecurse nosync nounwind memory(argmem: write) uwtable
define hidden noundef ptr @_ZN6google8protobuf17FastHex64ToBufferEmPc(i64 noundef %0, ptr noundef returned writeonly initializes((16, 17)) %1) local_unnamed_addr #16 {
  %3 = getelementptr inbounds nuw i8, ptr %1, i64 16
  store i8 0, ptr %3, align 1, !tbaa !11
  br label %.lr.ph.i

.lr.ph.i:                                         ; preds = %.lr.ph.i, %2
  %indvars.iv.i = phi i64 [ 16, %2 ], [ %indvars.iv.next.i, %.lr.ph.i ]
  %.0910.i = phi i64 [ %0, %2 ], [ %8, %.lr.ph.i ]
  %indvars.iv.next.i = add nsw i64 %indvars.iv.i, -1
  %4 = and i64 %.0910.i, 15
  %5 = getelementptr inbounds nuw i8, ptr @_ZZN6google8protobuf7strings8AlphaNumC1ENS1_3HexEE9hexdigits, i64 %4
  %6 = load i8, ptr %5, align 1, !tbaa !11
  %7 = getelementptr inbounds nuw i8, ptr %1, i64 %indvars.iv.next.i
  store i8 %6, ptr %7, align 1, !tbaa !11
  %8 = lshr i64 %.0910.i, 4
  %9 = icmp samesign ugt i64 %indvars.iv.i, 1
  br i1 %9, label %.lr.ph.i, label %_ZN6google8protobuf23InternalFastHexToBufferEmPci.exit, !llvm.loop !72

_ZN6google8protobuf23InternalFastHexToBufferEmPci.exit: ; preds = %.lr.ph.i
  ret ptr %1
}